; Function Attrs: mustprogress uwtable
define internal void @"_ZNSt17_Function_handlerIFvPKcEZN9V3Options13parseOptsListEP8FileLineRKNSt7__cxx1112basic_stringIcSt11char_traitsIcESaIcEEEiPPcE4$_57E9_M_invokeERKSt9_Any_dataOS1_"(ptr noundef nonnull readonly align 8 captures(none) dereferenceable(16) %0, ptr noundef nonnull readonly align 8 captures(none) dereferenceable(8) %1) #6 align 2 {
  %.val = load ptr, ptr %0, align 8, !tbaa !785
  %.val2 = load ptr, ptr %1, align 8, !tbaa !4
  %3 = getelementptr inbounds nuw i8, ptr %.val, i64 1168
  %4 = getelementptr inbounds nuw i8, ptr %.val, i64 1176
  %5 = load i64, ptr %4, align 8, !tbaa !24
  %6 = tail call noundef i64 @strlen(ptr noundef nonnull dereferenceable(1) %.val2) #40
  %7 = tail call noundef nonnull align 8 dereferenceable(32) ptr @_ZNSt7__cxx1112basic_stringIcSt11char_traitsIcESaIcEE10_M_replaceEmmPKcm(ptr noundef nonnull align 8 dereferenceable(32) %3, i64 noundef 0, i64 noundef %5, ptr noundef nonnull %.val2, i64 noundef %6)
  %8 = getelementptr inbounds nuw i8, ptr %.val, i64 839
  store i8 1, ptr %8, align 1, !tbaa !269
  ret void
}